; Function Attrs: nounwind uwtable
define internal fastcc void @lv_obj_construct(ptr noundef %0, ptr noundef nonnull %1) unnamed_addr #0 {
  %3 = load ptr, ptr %1, align 8, !tbaa !13
  %4 = load ptr, ptr %3, align 8, !tbaa !3
  %.not = icmp eq ptr %4, null
  br i1 %.not, label %6, label %5

5:                                                ; preds = %2
  store ptr %4, ptr %1, align 8, !tbaa !13
  tail call fastcc void @lv_obj_construct(ptr noundef %0, ptr noundef %1)
  store ptr %3, ptr %1, align 8, !tbaa !13
  br label %6

6:                                                ; preds = %5, %2
  %7 = getelementptr inbounds nuw i8, ptr %3, i64 8
  %8 = load ptr, ptr %7, align 8, !tbaa !48
  %.not13 = icmp eq ptr %8, null
  br i1 %.not13, label %10, label %9

9:                                                ; preds = %6
  tail call void %8(ptr noundef %0, ptr noundef nonnull %1) #3
  br label %10

10:                                               ; preds = %9, %6
  ret void
}